Certificate:
    Data:
        Version: 3 (0x2)
        Serial Number: 11 (0xb)
    Signature Algorithm: sha256WithRSAEncryption
        Issuer: C=CN, ST=GuangDong, L=ShenZhen, O=Huawei, OU=Enterprise UC&C ProductLine Telepresence PDU, CN=huawei_ca/emailAddress=quhaisong@huawei.com
        Validity
            Not Before: Aug 27 07:54:33 2014 GMT
            Not After : Aug 24 07:54:33 2024 GMT
        Subject: C=CN, ST=GuangDong, O=Huawei, OU=Enterprise UC&C ProductLine Telepresence PDU, CN=vct.tp.huawei.com/emailAddress=zhaoyunxuan@huawei.com
        Subject Public Key Info:
            Public Key Algorithm: rsaEncryption
                Public-Key: (2048 bit)
                Modulus:
                    00:e0:4d:e4:68:18:3c:9b:c6:d5:77:20:f9:37:6b:
                    9c:51:3d:6d:23:a5:4d:2a:f5:85:d0:79:b3:6e:80:
                    3d:6c:cf:14:2e:8c:96:bd:5c:70:f8:da:ee:ad:e2:
                    f4:85:76:16:eb:d3:57:f5:67:3e:d3:ce:01:42:a5:
                    00:85:30:ed:7f:0e:ba:10:fa:80:3c:e7:a4:58:8e:
                    fc:33:7d:fe:a0:35:10:58:1c:77:64:a6:3c:dc:32:
                    ba:ce:93:20:d2:38:57:ce:ce:d9:b6:d4:b7:a4:de:
                    7d:06:e1:b7:7d:70:e2:15:87:9d:29:82:99:66:ea:
                    11:9b:87:c9:81:65:f3:57:b6:27:ce:4e:72:54:cf:
                    c7:c2:9e:0c:59:17:b6:42:cc:01:31:64:9f:49:27:
                    a0:94:e3:03:59:3f:0d:4f:7a:44:3d:de:5d:a4:6b:
                    27:0a:31:f8:88:b5:9e:cf:27:fd:97:e0:5c:d8:c6:
                    4b:fb:07:2c:9b:23:f2:bb:6d:79:78:9c:e9:b3:8b:
                    20:30:54:77:fc:f4:67:2e:7f:f3:d5:05:d4:83:14:
                    bf:29:aa:1a:53:57:98:85:1c:03:8e:62:86:7f:4a:
                    0e:0c:91:85:6a:e5:78:77:30:1c:65:67:7d:9c:e9:
                    26:71:f5:3c:9e:57:48:f8:9d:6b:8d:4f:11:ac:e3:
                    32:07
                Exponent: 65537 (0x10001)
        X509v3 extensions:
            X509v3 Basic Constraints: 
                CA:FALSE
            X509v3 Key Usage: 
                Digital Signature, Non Repudiation, Key Encipherment
            Netscape Comment: 
                OpenSSL Generated Certificate
            X509v3 Subject Key Identifier: 
                01:FE:9D:BF:30:4D:4E:D7:4C:56:FE:14:36:F5:8B:1B:94:44:85:6E
            X509v3 Authority Key Identifier: 
                keyid:3C:D6:DE:2A:BA:F3:A5:2A:5A:E0:97:2F:C6:D9:0C:5F:06:88:A6:5A

    Signature Algorithm: sha256WithRSAEncryption
         29:e2:ed:32:26:f1:b0:cd:c3:4a:49:45:1a:de:04:27:53:a7:
         69:18:b4:ad:a6:6a:f6:74:3a:7c:bb:8f:15:ef:83:55:97:3d:
         55:45:9d:64:2b:56:c0:0f:91:19:c8:72:b6:c6:96:55:c7:53:
         1a:69:74:c9:86:ba:21:35:de:98:5f:84:b6:e8:45:1e:c8:53:
         89:a5:fe:da:48:e1:ca:9c:9f:23:27:04:33:39:13:31:1e:f7:
         d6:7d:25:ab:26:81:5d:12:24:b4:f2:fb:52:ea:93:28:3e:62:
         71:9b:59:4d:09:3f:b8:eb:c8:26:7c:26:0f:71:0f:23:ca:e6:
         6e:1f:4f:9a:ca:07:80:75:fc:fb:f0:28:27:93:72:dd:37:ec:
         1a:97:bf:a1:65:70:29:5e:33:a0:73:65:ce:21:56:3d:39:3c:
         2b:db:e2:a9:6a:ca:f7:d1:a5:0c:67:b7:e7:85:fd:0d:6c:b4:
         53:51:f0:89:98:e0:17:2f:8e:19:14:78:31:fe:86:5a:02:6f:
         6a:67:3d:91:9b:a9:bd:85:f5:da:f6:ae:07:5e:ca:c1:a7:e2:
         ca:01:cd:b3:9c:72:47:ae:0a:a8:64:62:bb:fb:8b:3d:a2:6d:
         7c:46:a8:75:3a:ba:fc:94:19:58:66:2f:04:31:8c:43:89:e8:
         51:47:e8:f7
-----BEGIN CERTIFICATE-----
MIIEaDCCA1CgAwIBAgIBCzANBgkqhkiG9w0BAQsFADCBtTELMAkGA1UEBhMCQ04x
EjAQBgNVBAgMCUd1YW5nRG9uZzERMA8GA1UEBwwIU2hlblpoZW4xDzANBgNVBAoM
Bkh1YXdlaTE1MDMGA1UECwwsRW50ZXJwcmlzZSBVQyZDIFByb2R1Y3RMaW5lIFRl
bGVwcmVzZW5jZSBQRFUxEjAQBgNVBAMMCWh1YXdlaV9jYTEjMCEGCSqGSIb3DQEJ
ARYUcXVoYWlzb25nQGh1YXdlaS5jb20wHhcNMTQwODI3MDc1NDMzWhcNMjQwODI0
MDc1NDMzWjCBrDELMAkGA1UEBhMCQ04xEjAQBgNVBAgMCUd1YW5nRG9uZzEPMA0G
A1UECgwGSHVhd2VpMTUwMwYDVQQLDCxFbnRlcnByaXNlIFVDJkMgUHJvZHVjdExp
bmUgVGVsZXByZXNlbmNlIFBEVTEaMBgGA1UEAwwRdmN0LnRwLmh1YXdlaS5jb20x
JTAjBgkqhkiG9w0BCQEWFnpoYW95dW54dWFuQGh1YXdlaS5jb20wggEiMA0GCSqG
SIb3DQEBAQUAA4IBDwAwggEKAoIBAQDgTeRoGDybxtV3IPk3a5xRPW0jpU0q9YXQ
ebNugD1szxQujJa9XHD42u6t4vSFdhbr01f1Zz7TzgFCpQCFMO1/DroQ+oA856RY
jvwzff6gNRBYHHdkpjzcMrrOkyDSOFfOztm21Lek3n0G4bd9cOIVh50pgplm6hGb
h8mBZfNXtifOTnJUz8fCngxZF7ZCzAExZJ9JJ6CU4wNZPw1PekQ93l2kaycKMfiI
tZ7PJ/2X4FzYxkv7ByybI/K7bXl4nOmziyAwVHf89Gcuf/PVBdSDFL8pqhpTV5iF
HAOOYoZ/Sg4MkYVq5Xh3MBxlZ32c6SZx9TyeV0j4nWuNTxGs4zIHAgMBAAGjgYkw
gYYwCQYDVR0TBAIwADALBgNVHQ8EBAMCBeAwLAYJYIZIAYb4QgENBB8WHU9wZW5T
U0wgR2VuZXJhdGVkIENlcnRpZmljYXRlMB0GA1UdDgQWBBQB/p2/ME1O10xW/hQ2
9YsblESFbjAfBgNVHSMEGDAWgBQ81t4quvOlKlrgly/G2QxfBoimWjANBgkqhkiG
9w0BAQsFAAOCAQEAKeLtMibxsM3DSklFGt4EJ1OnaRi0raZq9nQ6fLuPFe+DVZc9
VUWdZCtWwA+RGchytsaWVcdTGml0yYa6ITXemF+EtuhFHshTiaX+2kjhypyfIycE
MzkTMR731n0lqyaBXRIktPL7UuqTKD5icZtZTQk/uOvIJnwmD3EPI8rmbh9PmsoH
gHX8+/AoJ5Ny3TfsGpe/oWVwKV4zoHNlziFWPTk8K9viqWrK99GlDGe354X9DWy0
U1HwiZjgFy+OGRR4Mf6GWgJvamc9kZupvYX12vauB17KwafiygHNs5xyR64KqGRi
u/uLPaJtfEaodTq6/JQZWGYvBDGMQ4noUUfo9w==
-----END CERTIFICATE-----
