Certificate:
    Data:
        Version: 3 (0x2)
        Serial Number:
            47:6f:6e:67:4c:69:61:6e:79:61:6e:67:20:13:01:29
    Signature Algorithm: sha256WithRSAEncryption
        Issuer: emailAddress=gonglianyang@huawei.com, OU=Enterprise UC&C ProductLine, O=Huawei, L=ShenZhen, ST=GuangDong, C=CN, CN=Huawei Enterprise UC&C ProductLine CA (20130129)
        Validity
            Not Before: Jan 29 00:00:00 2013 GMT
            Not After : Dec 31 23:59:59 2099 GMT
        Subject: emailAddress=gonglianyang@huawei.com, OU=Enterprise UC&C ProductLine, O=Huawei, L=ShenZhen, ST=GuangDong, C=CN, CN=Huawei Enterprise UC&C ProductLine CA (20130129)
        Subject Public Key Info:
            Public Key Algorithm: rsaEncryption
                Public-Key: (4096 bit)
                Modulus:
                    00:cc:1a:3a:47:77:64:59:c8:dd:c5:fb:92:c4:9f:
                    34:e9:63:93:e5:00:23:ba:07:11:dc:04:eb:0e:5b:
                    9e:83:7e:5d:b8:5b:6c:b3:44:7d:0b:35:4e:73:42:
                    28:4e:c2:6b:6e:0b:7d:52:e4:86:e8:80:a9:a5:f3:
                    f2:73:0c:f1:39:dc:c9:8f:76:96:44:57:66:05:95:
                    aa:b3:2e:78:7b:34:75:25:a5:9c:ad:b3:d2:f7:58:
                    00:03:33:06:d5:db:1c:25:50:1e:ce:bb:30:7e:32:
                    90:df:51:ef:35:10:1a:c2:a6:1c:53:7b:73:c7:ce:
                    71:b8:3c:85:41:a7:9f:e8:51:ca:ea:3b:ff:e1:53:
                    50:d9:96:4d:50:68:04:60:58:99:76:d6:b2:b3:ea:
                    ac:f6:68:e1:62:eb:2a:0e:39:35:31:f5:81:7b:21:
                    9c:32:db:15:49:e2:39:73:eb:76:79:76:9f:5b:2d:
                    da:9e:7c:51:14:72:73:09:ee:18:13:61:ac:b3:07:
                    27:58:d7:e8:39:e8:c9:eb:cd:7a:a0:cf:7f:00:ef:
                    a0:de:4a:ff:1e:29:82:d3:03:b6:fb:8c:23:a2:47:
                    21:55:8d:e8:03:36:f5:0c:36:5b:d7:12:6b:57:af:
                    5f:4d:67:0e:be:8f:86:52:54:8b:06:de:02:7f:d1:
                    d6:cb:93:93:8f:b5:73:41:40:7f:ca:d3:63:ca:45:
                    37:5f:4a:e0:3d:34:ab:b6:f8:f1:6e:4d:c2:8f:e9:
                    13:fa:d9:a8:cd:39:4b:ec:5e:09:80:61:63:3d:4b:
                    56:8e:a1:2e:3d:cf:31:92:c1:15:1f:8c:6c:c2:9d:
                    0f:37:17:9a:95:6d:55:df:8d:97:b4:b3:89:ac:40:
                    48:ae:82:dd:36:f0:22:9f:10:c0:98:a9:02:0c:c6:
                    39:d1:29:ae:43:d3:c1:80:a3:bf:56:7b:57:93:a6:
                    5f:b0:d4:ae:87:41:29:6b:32:31:56:85:50:ae:0a:
                    2b:65:46:8e:43:67:37:5c:ce:da:9d:59:7d:11:1d:
                    4e:e9:c8:07:b5:98:23:99:99:84:a8:aa:b0:88:fb:
                    d4:cc:8f:04:f6:40:55:99:61:63:91:00:a2:2a:3f:
                    43:2c:7f:83:e3:91:c0:76:94:42:60:ed:8c:74:40:
                    51:56:b0:45:36:43:7a:82:93:38:9b:08:bc:ab:01:
                    67:96:82:1b:fd:4f:4c:5d:49:f3:35:36:da:24:76:
                    a2:ad:6a:78:38:41:e3:fe:92:98:17:2f:7d:74:69:
                    40:de:42:1b:a5:37:43:33:00:72:ae:b9:cf:72:cd:
                    31:9e:99:42:ee:8b:d2:a1:ac:96:79:63:2f:db:fa:
                    fc:f0:c3
                Exponent: 65537 (0x10001)
        X509v3 extensions:
            X509v3 Basic Constraints: 
                CA:TRUE
            X509v3 Key Usage: 
                Certificate Sign, CRL Sign
            Netscape Comment: 
                Huawei Enterprise UC&C ProductLine Root Certificate
            X509v3 Subject Key Identifier: 
                D9:A5:E5:74:00:E9:71:57:B1:05:29:D7:4F:5A:0E:0D:32:69:25:E0
            X509v3 Authority Key Identifier: 
                keyid:D9:A5:E5:74:00:E9:71:57:B1:05:29:D7:4F:5A:0E:0D:32:69:25:E0

            X509v3 Extended Key Usage: 
                TLS Web Server Authentication, TLS Web Client Authentication, Code Signing, E-mail Protection
    Signature Algorithm: sha256WithRSAEncryption
         5d:3e:59:5c:f4:2a:dd:92:a8:7d:25:68:4d:ee:b3:38:a5:ba:
         bc:49:a9:5f:3d:dc:cf:72:87:1d:e7:50:70:f0:42:df:ff:84:
         9b:70:9e:14:7d:66:e5:bb:39:4f:81:44:c8:ac:3d:95:f9:d0:
         24:7d:82:32:c4:56:4e:cb:7c:23:56:f2:69:f5:e6:3a:b3:0e:
         e5:94:1a:4b:1d:85:bb:9d:fd:5a:da:ec:3c:15:57:e4:56:4a:
         a1:fd:85:cf:cd:48:e0:ab:ca:c3:53:01:bc:c9:82:04:bb:7b:
         ea:5e:6d:df:13:3b:d4:97:61:56:c0:b1:d8:4b:eb:c9:85:59:
         7d:b4:e3:e7:84:29:2d:d7:a7:59:b2:7c:25:66:07:6d:e0:96:
         53:a1:53:c3:39:be:2e:e7:ac:00:73:6e:73:f0:c6:27:fd:68:
         8b:fb:84:15:73:1e:4b:12:94:ef:dc:97:e3:d8:99:48:38:04:
         ec:15:b7:1a:b1:c8:f1:1d:04:96:ce:4b:e3:89:b4:b3:f7:27:
         e6:2a:65:aa:da:57:06:75:69:00:6e:73:fb:23:a0:e9:44:af:
         46:7e:b1:06:db:ce:d1:93:d5:de:8f:b9:c1:6f:73:a1:12:f2:
         04:84:25:b9:4e:52:1f:c5:7c:a2:a8:f7:2d:b5:37:91:4f:94:
         16:8c:62:66:48:8e:06:2c:25:39:6a:87:af:3f:cf:17:b5:9e:
         52:f6:15:6f:f0:78:e0:b1:a5:40:ea:d3:1a:9b:db:07:d6:c0:
         d3:13:d3:fc:71:34:ea:b6:6b:53:8a:26:c9:80:ff:5b:01:5d:
         2c:78:a1:eb:56:77:1d:77:8a:d1:ff:8a:a5:39:f6:44:71:dc:
         41:7e:f1:79:28:c0:20:ba:01:14:08:5e:c6:45:4e:02:d1:22:
         81:b1:2b:7c:5d:8a:11:a7:74:c7:d7:c2:9e:9b:67:5a:66:d5:
         fd:a8:1c:52:22:0a:66:6e:09:f0:28:43:80:a3:a1:18:e9:87:
         29:1a:47:98:fc:48:77:a1:98:44:08:a0:c7:df:9e:e5:74:46:
         ee:e9:f3:41:6d:da:93:2d:27:ce:3f:5e:7c:c4:22:5c:48:e3:
         b1:5b:77:4b:b5:9b:14:d5:13:50:b5:36:cb:44:54:3f:5f:be:
         a6:ff:22:2f:8b:bd:c5:8e:46:ed:24:2c:b0:5a:9d:60:a8:8c:
         70:83:01:6c:b9:2a:2c:f9:8e:ca:f8:a6:05:ba:a2:06:aa:3c:
         46:e1:02:df:6b:58:17:23:11:23:b9:8c:37:04:25:b1:11:19:
         3d:a4:f6:ee:c3:41:67:81:20:ec:14:a5:36:70:7a:99:48:42:
         02:28:44:d7:a6:e4:ba:17
-----BEGIN CERTIFICATE-----
MIIHAjCCBOqgAwIBAgIQR29uZ0xpYW55YW5nIBMBKTANBgkqhkiG9w0BAQsFADCB
zjEmMCQGCSqGSIb3DQEJARYXZ29uZ2xpYW55YW5nQGh1YXdlaS5jb20xJDAiBgNV
BAsMG0VudGVycHJpc2UgVUMmQyBQcm9kdWN0TGluZTEPMA0GA1UECgwGSHVhd2Vp
MREwDwYDVQQHDAhTaGVuWmhlbjESMBAGA1UECAwJR3VhbmdEb25nMQswCQYDVQQG
EwJDTjE5MDcGA1UEAwwwSHVhd2VpIEVudGVycHJpc2UgVUMmQyBQcm9kdWN0TGlu
ZSBDQSAoMjAxMzAxMjkpMCIYDzIwMTMwMTI5MDAwMDAwWhgPMjA5OTEyMzEyMzU5
NTlaMIHOMSYwJAYJKoZIhvcNAQkBFhdnb25nbGlhbnlhbmdAaHVhd2VpLmNvbTEk
MCIGA1UECwwbRW50ZXJwcmlzZSBVQyZDIFByb2R1Y3RMaW5lMQ8wDQYDVQQKDAZI
dWF3ZWkxETAPBgNVBAcMCFNoZW5aaGVuMRIwEAYDVQQIDAlHdWFuZ0RvbmcxCzAJ
BgNVBAYTAkNOMTkwNwYDVQQDDDBIdWF3ZWkgRW50ZXJwcmlzZSBVQyZDIFByb2R1
Y3RMaW5lIENBICgyMDEzMDEyOSkwggIiMA0GCSqGSIb3DQEBAQUAA4ICDwAwggIK
AoICAQDMGjpHd2RZyN3F+5LEnzTpY5PlACO6BxHcBOsOW56Dfl24W2yzRH0LNU5z
QihOwmtuC31S5IbogKml8/JzDPE53MmPdpZEV2YFlaqzLnh7NHUlpZyts9L3WAAD
MwbV2xwlUB7OuzB+MpDfUe81EBrCphxTe3PHznG4PIVBp5/oUcrqO//hU1DZlk1Q
aARgWJl21rKz6qz2aOFi6yoOOTUx9YF7IZwy2xVJ4jlz63Z5dp9bLdqefFEUcnMJ
7hgTYayzBydY1+g56MnrzXqgz38A76DeSv8eKYLTA7b7jCOiRyFVjegDNvUMNlvX
EmtXr19NZw6+j4ZSVIsG3gJ/0dbLk5OPtXNBQH/K02PKRTdfSuA9NKu2+PFuTcKP
6RP62ajNOUvsXgmAYWM9S1aOoS49zzGSwRUfjGzCnQ83F5qVbVXfjZe0s4msQEiu
gt028CKfEMCYqQIMxjnRKa5D08GAo79We1eTpl+w1K6HQSlrMjFWhVCuCitlRo5D
ZzdcztqdWX0RHU7pyAe1mCOZmYSoqrCI+9TMjwT2QFWZYWORAKIqP0Msf4PjkcB2
lEJg7Yx0QFFWsEU2Q3qCkzibCLyrAWeWghv9T0xdSfM1NtokdqKtang4QeP+kpgX
L310aUDeQhulN0MzAHKuuc9yzTGemULui9KhrJZ5Yy/b+vzwwwIDAQABo4HVMIHS
MAwGA1UdEwQFMAMBAf8wCwYDVR0PBAQDAgEGMEIGCWCGSAGG+EIBDQQ1FjNIdWF3
ZWkgRW50ZXJwcmlzZSBVQyZDIFByb2R1Y3RMaW5lIFJvb3QgQ2VydGlmaWNhdGUw
HQYDVR0OBBYEFNml5XQA6XFXsQUp109aDg0yaSXgMB8GA1UdIwQYMBaAFNml5XQA
6XFXsQUp109aDg0yaSXgMDEGA1UdJQQqMCgGCCsGAQUFBwMBBggrBgEFBQcDAgYI
KwYBBQUHAwMGCCsGAQUFBwMEMA0GCSqGSIb3DQEBCwUAA4ICAQBdPllc9Crdkqh9
JWhN7rM4pbq8SalfPdzPcocd51Bw8ELf/4SbcJ4UfWbluzlPgUTIrD2V+dAkfYIy
xFZOy3wjVvJp9eY6sw7llBpLHYW7nf1a2uw8FVfkVkqh/YXPzUjgq8rDUwG8yYIE
u3vqXm3fEzvUl2FWwLHYS+vJhVl9tOPnhCkt16dZsnwlZgdt4JZToVPDOb4u56wA
c25z8MYn/WiL+4QVcx5LEpTv3Jfj2JlIOATsFbcascjxHQSWzkvjibSz9yfmKmWq
2lcGdWkAbnP7I6DpRK9GfrEG287Rk9Xej7nBb3OhEvIEhCW5TlIfxXyiqPcttTeR
T5QWjGJmSI4GLCU5aoevP88XtZ5S9hVv8HjgsaVA6tMam9sH1sDTE9P8cTTqtmtT
iibJgP9bAV0seKHrVncdd4rR/4qlOfZEcdxBfvF5KMAgugEUCF7GRU4C0SKBsSt8
XYoRp3TH18Kem2daZtX9qBxSIgpmbgnwKEOAo6EY6YcpGkeY/Eh3oZhECKDH357l
dEbu6fNBbdqTLSfOP158xCJcSOOxW3dLtZsU1RNQtTbLRFQ/X76m/yIvi73Fjkbt
JCywWp1gqIxwgwFsuSos+Y7K+KYFuqIGqjxG4QLfa1gXIxEjuYw3BCWxERk9pPbu
w0FngSDsFKU2cHqZSEICKETXpuS6Fw==
-----END CERTIFICATE-----
